; Function Attrs: nounwind sspstrong uwtable
define dso_local void @tcg_gen_mov_vec(ptr noundef %r, ptr noundef %a) local_unnamed_addr #0 {
entry:
  %cmp.not = icmp eq ptr %r, %a
  br i1 %cmp.not, label %if.end, label %if.then

if.then:                                          ; preds = %entry
  %0 = tail call align 8 ptr @llvm.threadlocal.address.p0(ptr align 8 @tcg_ctx)
  %1 = load ptr, ptr %0, align 8
  %2 = ptrtoint ptr %r to i64
  %add.ptr.i.i.i = getelementptr i8, ptr %1, i64 %2
  %3 = ptrtoint ptr %a to i64
  %add.ptr.i.i4.i = getelementptr i8, ptr %1, i64 %3
  %bf.load.i = load i64, ptr %add.ptr.i.i.i, align 8
  %4 = trunc i64 %bf.load.i to i32
  %5 = lshr i32 %4, 16
  %bf.cast.i = and i32 %5, 255
  %bf.load2.i = load i64, ptr %add.ptr.i.i4.i, align 8
  %6 = trunc i64 %bf.load2.i to i32
  %7 = lshr i32 %6, 16
  %bf.cast5.i = and i32 %7, 255
  %cmp.i = icmp samesign uge i32 %bf.cast5.i, %bf.cast.i
  tail call void @llvm.assume(i1 %cmp.i)
  %8 = ptrtoint ptr %add.ptr.i.i.i to i64
  %9 = ptrtoint ptr %add.ptr.i.i4.i to i64
  %call.i.i = tail call ptr @tcg_emit_op(i32 noundef 149, i32 noundef 2) #5
  %bf.load.i.i = load i32, ptr %call.i.i, align 8
  %sub.i.i = shl nuw nsw i32 %bf.cast.i, 16
  %bf.value.i.i = add nuw nsw i32 %sub.i.i, 16580608
  %bf.clear.i.i = and i32 %bf.load.i.i, 65535
  %bf.value.masked.i.i = and i32 %bf.value.i.i, 16711680
  %bf.clear4.i.i = or disjoint i32 %bf.value.masked.i.i, %bf.clear.i.i
  store i32 %bf.clear4.i.i, ptr %call.i.i, align 8
  %args.i.i = getelementptr inbounds nuw i8, ptr %call.i.i, i64 32
  store i64 %8, ptr %args.i.i, align 8
  %arrayidx7.i.i = getelementptr i8, ptr %call.i.i, i64 40
  store i64 %9, ptr %arrayidx7.i.i, align 8
  br label %if.end

if.end:                                           ; preds = %if.then, %entry
  ret void
}